target datalayout = "e-m:e-p270:32:32-p271:32:32-p272:64:64-i64:64-i128:128-f80:128-n8:16:32:64-S128"
target triple = "x86_64-pc-linux-gnu"

%struct.prolog_state = type { ptr, i32, i32 }
%struct.encoding = type { [3 x ptr], [2 x ptr], ptr, ptr, ptr, ptr, ptr, ptr, ptr, ptr, ptr, ptr, i32, i8, i8 }

@KW_ENTITY = internal constant [7 x i8] c"ENTITY\00", align 1
@KW_ATTLIST = internal constant [8 x i8] c"ATTLIST\00", align 1
@KW_ELEMENT = internal constant [8 x i8] c"ELEMENT\00", align 1
@KW_NOTATION = internal constant [9 x i8] c"NOTATION\00", align 1

; Function Attrs: nounwind uwtable
define internal i32 @common(ptr noundef %0, i32 noundef %1) #0 {
  %3 = alloca ptr, align 8
  %4 = alloca i32, align 4
  store ptr %0, ptr %3, align 8, !tbaa !4
  store i32 %1, ptr %4, align 4, !tbaa !12
  %5 = load ptr, ptr %3, align 8, !tbaa !4
  %6 = getelementptr inbounds nuw %struct.prolog_state, ptr %5, i32 0, i32 0
  store ptr @error, ptr %6, align 8, !tbaa !9
  ret i32 -1
}

; Function Attrs: nounwind uwtable
define internal i32 @internalSubset(ptr noundef %0, i32 noundef %1, ptr noundef %2, ptr noundef %3, ptr noundef %4) #0 {
  %6 = alloca i32, align 4
  %7 = alloca ptr, align 8
  %8 = alloca i32, align 4
  %9 = alloca ptr, align 8
  %10 = alloca ptr, align 8
  %11 = alloca ptr, align 8
  store ptr %0, ptr %7, align 8, !tbaa !4
  store i32 %1, ptr %8, align 4, !tbaa !12
  store ptr %2, ptr %9, align 8, !tbaa !13
  store ptr %3, ptr %10, align 8, !tbaa !13
  store ptr %4, ptr %11, align 8, !tbaa !15
  %12 = load i32, ptr %8, align 4, !tbaa !12
  switch i32 %12, label %94 [
    i32 15, label %13
    i32 16, label %14
    i32 11, label %87
    i32 13, label %88
    i32 28, label %89
    i32 26, label %90
    i32 -4, label %93
  ]

13:                                               ; preds = %5
  store i32 0, ptr %6, align 4
  br label %98

14:                                               ; preds = %5
  %15 = load ptr, ptr %11, align 8, !tbaa !15
  %16 = getelementptr inbounds nuw %struct.encoding, ptr %15, i32 0, i32 2
  %17 = load ptr, ptr %16, align 8, !tbaa !17
  %18 = load ptr, ptr %11, align 8, !tbaa !15
  %19 = load ptr, ptr %9, align 8, !tbaa !13
  %20 = load ptr, ptr %11, align 8, !tbaa !15
  %21 = getelementptr inbounds nuw %struct.encoding, ptr %20, i32 0, i32 12
  %22 = load i32, ptr %21, align 8, !tbaa !19
  %23 = mul nsw i32 2, %22
  %24 = sext i32 %23 to i64
  %25 = getelementptr inbounds i8, ptr %19, i64 %24
  %26 = load ptr, ptr %10, align 8, !tbaa !13
  %27 = call i32 %17(ptr noundef %18, ptr noundef %25, ptr noundef %26, ptr noundef @KW_ENTITY)
  %28 = icmp ne i32 %27, 0
  br i1 %28, label %29, label %32

29:                                               ; preds = %14
  %30 = load ptr, ptr %7, align 8, !tbaa !4
  %31 = getelementptr inbounds nuw %struct.prolog_state, ptr %30, i32 0, i32 0
  store ptr @entity0, ptr %31, align 8, !tbaa !9
  store i32 11, ptr %6, align 4
  br label %98

32:                                               ; preds = %14
  %33 = load ptr, ptr %11, align 8, !tbaa !15
  %34 = getelementptr inbounds nuw %struct.encoding, ptr %33, i32 0, i32 2
  %35 = load ptr, ptr %34, align 8, !tbaa !17
  %36 = load ptr, ptr %11, align 8, !tbaa !15
  %37 = load ptr, ptr %9, align 8, !tbaa !13
  %38 = load ptr, ptr %11, align 8, !tbaa !15
  %39 = getelementptr inbounds nuw %struct.encoding, ptr %38, i32 0, i32 12
  %40 = load i32, ptr %39, align 8, !tbaa !19
  %41 = mul nsw i32 2, %40
  %42 = sext i32 %41 to i64
  %43 = getelementptr inbounds i8, ptr %37, i64 %42
  %44 = load ptr, ptr %10, align 8, !tbaa !13
  %45 = call i32 %35(ptr noundef %36, ptr noundef %43, ptr noundef %44, ptr noundef @KW_ATTLIST)
  %46 = icmp ne i32 %45, 0
  br i1 %46, label %47, label %50

47:                                               ; preds = %32
  %48 = load ptr, ptr %7, align 8, !tbaa !4
  %49 = getelementptr inbounds nuw %struct.prolog_state, ptr %48, i32 0, i32 0
  store ptr @attlist0, ptr %49, align 8, !tbaa !9
  store i32 33, ptr %6, align 4
  br label %98

50:                                               ; preds = %32
  %51 = load ptr, ptr %11, align 8, !tbaa !15
  %52 = getelementptr inbounds nuw %struct.encoding, ptr %51, i32 0, i32 2
  %53 = load ptr, ptr %52, align 8, !tbaa !17
  %54 = load ptr, ptr %11, align 8, !tbaa !15
  %55 = load ptr, ptr %9, align 8, !tbaa !13
  %56 = load ptr, ptr %11, align 8, !tbaa !15
  %57 = getelementptr inbounds nuw %struct.encoding, ptr %56, i32 0, i32 12
  %58 = load i32, ptr %57, align 8, !tbaa !19
  %59 = mul nsw i32 2, %58
  %60 = sext i32 %59 to i64
  %61 = getelementptr inbounds i8, ptr %55, i64 %60
  %62 = load ptr, ptr %10, align 8, !tbaa !13
  %63 = call i32 %53(ptr noundef %54, ptr noundef %61, ptr noundef %62, ptr noundef @KW_ELEMENT)
  %64 = icmp ne i32 %63, 0
  br i1 %64, label %65, label %68

65:                                               ; preds = %50
  %66 = load ptr, ptr %7, align 8, !tbaa !4
  %67 = getelementptr inbounds nuw %struct.prolog_state, ptr %66, i32 0, i32 0
  store ptr @element0, ptr %67, align 8, !tbaa !9
  store i32 39, ptr %6, align 4
  br label %98

68:                                               ; preds = %50
  %69 = load ptr, ptr %11, align 8, !tbaa !15
  %70 = getelementptr inbounds nuw %struct.encoding, ptr %69, i32 0, i32 2
  %71 = load ptr, ptr %70, align 8, !tbaa !17
  %72 = load ptr, ptr %11, align 8, !tbaa !15
  %73 = load ptr, ptr %9, align 8, !tbaa !13
  %74 = load ptr, ptr %11, align 8, !tbaa !15
  %75 = getelementptr inbounds nuw %struct.encoding, ptr %74, i32 0, i32 12
  %76 = load i32, ptr %75, align 8, !tbaa !19
  %77 = mul nsw i32 2, %76
  %78 = sext i32 %77 to i64
  %79 = getelementptr inbounds i8, ptr %73, i64 %78
  %80 = load ptr, ptr %10, align 8, !tbaa !13
  %81 = call i32 %71(ptr noundef %72, ptr noundef %79, ptr noundef %80, ptr noundef @KW_NOTATION)
  %82 = icmp ne i32 %81, 0
  br i1 %82, label %83, label %86

83:                                               ; preds = %68
  %84 = load ptr, ptr %7, align 8, !tbaa !4
  %85 = getelementptr inbounds nuw %struct.prolog_state, ptr %84, i32 0, i32 0
  store ptr @notation0, ptr %85, align 8, !tbaa !9
  store i32 17, ptr %6, align 4
  br label %98

86:                                               ; preds = %68
  br label %94

87:                                               ; preds = %5
  store i32 55, ptr %6, align 4
  br label %98

88:                                               ; preds = %5
  store i32 56, ptr %6, align 4
  br label %98

89:                                               ; preds = %5
  store i32 57, ptr %6, align 4
  br label %98

90:                                               ; preds = %5
  %91 = load ptr, ptr %7, align 8, !tbaa !4
  %92 = getelementptr inbounds nuw %struct.prolog_state, ptr %91, i32 0, i32 0
  store ptr @doctype5, ptr %92, align 8, !tbaa !9
  store i32 3, ptr %6, align 4
  br label %98

93:                                               ; preds = %5
  store i32 0, ptr %6, align 4
  br label %98

94:                                               ; preds = %5, %86
  %95 = load ptr, ptr %7, align 8, !tbaa !4
  %96 = load i32, ptr %8, align 4, !tbaa !12
  %97 = call i32 @common(ptr noundef %95, i32 noundef %96)
  store i32 %97, ptr %6, align 4
  br label %98

98:                                               ; preds = %94, %93, %90, %89, %88, %87, %83, %65, %47, %29, %13
  %99 = load i32, ptr %6, align 4
  ret i32 %99
}